target datalayout = "e-m:e-p270:32:32-p271:32:32-p272:64:64-i64:64-i128:128-f80:128-n8:16:32:64-S128"
target triple = "x86_64-pc-linux-gnu"

@.str = private unnamed_addr constant [24 x i8] c"OPENSSL_TEST_RAND_ORDER\00", align 1
@.str.1 = private unnamed_addr constant [23 x i8] c"OPENSSL_TEST_RAND_SEED\00", align 1
@.str.2 = private unnamed_addr constant [19 x i8] c"HARNESS_OSSL_LEVEL\00", align 1
@level = internal global i32 0, align 4
@rand_order = internal global i32 0, align 4
@seed = internal global i32 0, align 4

; Function Attrs: nounwind uwtable
define internal void @set_seed(i32 noundef %0) #0 {
  %2 = alloca i32, align 4
  store i32 %0, ptr %2, align 4, !tbaa !9
  %3 = load i32, ptr %2, align 4, !tbaa !9
  store i32 %3, ptr @seed, align 4, !tbaa !9
  %4 = load i32, ptr @seed, align 4, !tbaa !9
  %5 = icmp sle i32 %4, 0
  br i1 %5, label %6, label %9

6:                                                ; preds = %1
  %7 = call i64 @time(ptr noundef null) #7
  %8 = trunc i64 %7 to i32
  store i32 %8, ptr @seed, align 4, !tbaa !9
  br label %9

9:                                                ; preds = %6, %1
  %10 = load i32, ptr @seed, align 4, !tbaa !9
  call void @test_random_seed(i32 noundef %10)
  ret void
}

; Function Attrs: inlinehint nounwind willreturn memory(read) uwtable
define available_externally i32 @atoi(ptr noundef nonnull %0) #3 {
  %2 = alloca ptr, align 8
  store ptr %0, ptr %2, align 8, !tbaa !3
  %3 = load ptr, ptr %2, align 8, !tbaa !3
  %4 = call i64 @strtol(ptr noundef %3, ptr noundef null, i32 noundef 10) #7
  %5 = trunc i64 %4 to i32
  ret i32 %5
}

; Function Attrs: nounwind uwtable
define i32 @setup_test_framework(i32 noundef %0, ptr noundef %1) #0 {
  %3 = alloca i32, align 4
  %4 = alloca i32, align 4
  %5 = alloca ptr, align 8
  %6 = alloca ptr, align 8
  %7 = alloca ptr, align 8
  %8 = alloca ptr, align 8
  %9 = alloca i32, align 4
  store i32 %0, ptr %4, align 4, !tbaa !9
  store ptr %1, ptr %5, align 8, !tbaa !16
  call void @llvm.lifetime.start.p0(i64 8, ptr %6) #7
  %10 = call ptr @getenv(ptr noundef @.str) #7
  store ptr %10, ptr %6, align 8, !tbaa !3
  call void @llvm.lifetime.start.p0(i64 8, ptr %7) #7
  %11 = call ptr @getenv(ptr noundef @.str.1) #7
  store ptr %11, ptr %7, align 8, !tbaa !3
  call void @llvm.lifetime.start.p0(i64 8, ptr %8) #7
  %12 = call ptr @getenv(ptr noundef @.str.2) #7
  store ptr %12, ptr %8, align 8, !tbaa !3
  %13 = load ptr, ptr %8, align 8, !tbaa !3
  %14 = icmp ne ptr %13, null
  br i1 %14, label %15, label %19

15:                                               ; preds = %2
  %16 = load ptr, ptr %8, align 8, !tbaa !3
  %17 = call i32 @atoi(ptr noundef %16) #8
  %18 = mul nsw i32 4, %17
  store i32 %18, ptr @level, align 4, !tbaa !9
  br label %19

19:                                               ; preds = %15, %2
  %20 = load i32, ptr @level, align 4, !tbaa !9
  call void @test_adjust_streams_tap_level(i32 noundef %20)
  %21 = load ptr, ptr %6, align 8, !tbaa !3
  %22 = icmp ne ptr %21, null
  br i1 %22, label %23, label %26

23:                                               ; preds = %19
  store i32 1, ptr @rand_order, align 4, !tbaa !9
  %24 = load ptr, ptr %6, align 8, !tbaa !3
  %25 = call i32 @atoi(ptr noundef %24) #8
  call void @set_seed(i32 noundef %25)
  br label %34

26:                                               ; preds = %19
  %27 = load ptr, ptr %7, align 8, !tbaa !3
  %28 = icmp ne ptr %27, null
  br i1 %28, label %29, label %32

29:                                               ; preds = %26
  %30 = load ptr, ptr %7, align 8, !tbaa !3
  %31 = call i32 @atoi(ptr noundef %30) #8
  call void @set_seed(i32 noundef %31)
  br label %33

32:                                               ; preds = %26
  call void @set_seed(i32 noundef 0)
  br label %33

33:                                               ; preds = %32, %29
  br label %34

34:                                               ; preds = %33, %23
  %35 = load i32, ptr %4, align 4, !tbaa !9
  %36 = load ptr, ptr %5, align 8, !tbaa !16
  %37 = call ptr @test_get_options()
  %38 = call ptr @opt_init(i32 noundef %35, ptr noundef %36, ptr noundef %37)
  %39 = icmp ne ptr %38, null
  br i1 %39, label %41, label %40

40:                                               ; preds = %34
  store i32 0, ptr %3, align 4
  store i32 1, ptr %9, align 4
  br label %42

41:                                               ; preds = %34
  store i32 1, ptr %3, align 4
  store i32 1, ptr %9, align 4
  br label %42

42:                                               ; preds = %41, %40
  call void @llvm.lifetime.end.p0(i64 8, ptr %8) #7
  call void @llvm.lifetime.end.p0(i64 8, ptr %7) #7
  call void @llvm.lifetime.end.p0(i64 8, ptr %6) #7
  %43 = load i32, ptr %3, align 4
  ret i32 %43
}