; Function Attrs: nounwind uwtable
define range(i32 0, 2) i32 @setup_test_framework(i32 noundef %0, ptr noundef %1) local_unnamed_addr #1 {
  %3 = tail call ptr @getenv(ptr noundef nonnull @.str) #13
  %4 = tail call ptr @getenv(ptr noundef nonnull @.str.1) #13
  %5 = tail call ptr @getenv(ptr noundef nonnull @.str.2) #13
  %.not = icmp eq ptr %5, null
  br i1 %.not, label %._crit_edge, label %6

._crit_edge:                                      ; preds = %2
  %.pre = load i32, ptr @level, align 4, !tbaa !3
  br label %10

6:                                                ; preds = %2
  %7 = tail call i64 @strtol(ptr noundef nonnull captures(none) %5, ptr noundef null, i32 noundef 10) #13
  %8 = trunc i64 %7 to i32
  %9 = shl nsw i32 %8, 2
  store i32 %9, ptr @level, align 4, !tbaa !3
  br label %10

10:                                               ; preds = %._crit_edge, %6
  %11 = phi i32 [ %.pre, %._crit_edge ], [ %9, %6 ]
  tail call void @test_adjust_streams_tap_level(i32 noundef %11) #13
  %.not11 = icmp eq ptr %3, null
  br i1 %.not11, label %16, label %12

12:                                               ; preds = %10
  store i1 true, ptr @rand_order, align 4
  %13 = tail call i64 @strtol(ptr noundef nonnull captures(none) %3, ptr noundef null, i32 noundef 10) #13
  %14 = trunc i64 %13 to i32
  store i32 %14, ptr @seed, align 4, !tbaa !3
  %15 = icmp slt i32 %14, 1
  br i1 %15, label %set_seed.exit.sink.split, label %set_seed.exit

16:                                               ; preds = %10
  %.not12 = icmp eq ptr %4, null
  br i1 %.not12, label %21, label %17

17:                                               ; preds = %16
  %18 = tail call i64 @strtol(ptr noundef nonnull captures(none) %4, ptr noundef null, i32 noundef 10) #13
  %19 = trunc i64 %18 to i32
  store i32 %19, ptr @seed, align 4, !tbaa !3
  %20 = icmp slt i32 %19, 1
  br i1 %20, label %set_seed.exit.sink.split, label %set_seed.exit

21:                                               ; preds = %16
  store i32 0, ptr @seed, align 4, !tbaa !3
  br label %set_seed.exit.sink.split

set_seed.exit.sink.split:                         ; preds = %17, %12, %21
  %22 = tail call i64 @time(ptr noundef null) #13
  %23 = trunc i64 %22 to i32
  store i32 %23, ptr @seed, align 4, !tbaa !3
  br label %set_seed.exit

set_seed.exit:                                    ; preds = %set_seed.exit.sink.split, %17, %12
  %.sink = phi i32 [ %14, %12 ], [ %19, %17 ], [ %23, %set_seed.exit.sink.split ]
  tail call void @test_random_seed(i32 noundef %.sink) #13
  %24 = tail call ptr @test_get_options() #13
  %25 = tail call ptr @opt_init(i32 noundef %0, ptr noundef %1, ptr noundef %24) #13
  %.not13 = icmp ne ptr %25, null
  %. = zext i1 %.not13 to i32
  ret i32 %.
}